; Function Attrs: mustprogress uwtable
define internal fastcc void @_ZN11OpenImageIO6v3_1_0L15circular_shift_IttEEbRNS0_8ImageBufERKS2_iiiNS0_3ROIES6_i(ptr noundef nonnull align 8 dereferenceable(16) %0, ptr noundef nonnull align 8 dereferenceable(16) %1, i32 noundef %2, i32 noundef %3, i32 noundef %4, ptr noundef byval(%"struct.OpenImageIO::v3_1_0::ROI") align 8 %5, ptr noundef readonly byval(%"struct.OpenImageIO::v3_1_0::ROI") align 8 captures(none) %6, i32 noundef %7) unnamed_addr #5 personality ptr @__gxx_personality_v0 {
  %9 = alloca i32, align 4
  %10 = alloca i32, align 4
  %11 = alloca i32, align 4
  %12 = alloca %"class.OpenImageIO::v3_1_0::paropt", align 8
  %13 = alloca %"class.std::function", align 8
  store i32 %2, ptr %9, align 4, !tbaa !15
  store i32 %3, ptr %10, align 4, !tbaa !15
  store i32 %4, ptr %11, align 4, !tbaa !15
  store i32 %7, ptr %12, align 8, !tbaa !30
  %14 = getelementptr inbounds nuw i8, ptr %12, i64 4
  store i16 0, ptr %14, align 4, !tbaa !36
  %15 = getelementptr inbounds nuw i8, ptr %12, i64 6
  store i16 1, ptr %15, align 2, !tbaa !37
  %16 = getelementptr inbounds nuw i8, ptr %12, i64 8
  store i64 1024, ptr %16, align 8, !tbaa !38
  %17 = getelementptr inbounds nuw i8, ptr %12, i64 16
  store ptr null, ptr %17, align 8, !tbaa !39
  %18 = getelementptr inbounds nuw i8, ptr %12, i64 24
  store i8 0, ptr %18, align 8, !tbaa !40
  %19 = getelementptr inbounds nuw i8, ptr %13, i64 16
  %20 = getelementptr inbounds nuw i8, ptr %13, i64 24
  %21 = getelementptr inbounds nuw i8, ptr %13, i64 8
  store i64 0, ptr %21, align 8
  %22 = tail call noalias noundef nonnull dereferenceable(48) ptr @_Znwm(i64 noundef 48) #30
  store ptr %5, ptr %22, align 16, !tbaa !50
  %.sroa.5.0..sroa_idx = getelementptr inbounds nuw i8, ptr %22, i64 8
  store ptr %1, ptr %.sroa.5.0..sroa_idx, align 8, !tbaa !41
  %.sroa.6.0..sroa_idx = getelementptr inbounds nuw i8, ptr %22, i64 16
  store ptr %0, ptr %.sroa.6.0..sroa_idx, align 16, !tbaa !41
  %.sroa.7.0..sroa_idx = getelementptr inbounds nuw i8, ptr %22, i64 24
  store ptr %9, ptr %.sroa.7.0..sroa_idx, align 8, !tbaa !43
  %.sroa.8.0..sroa_idx = getelementptr inbounds nuw i8, ptr %22, i64 32
  store ptr %10, ptr %.sroa.8.0..sroa_idx, align 16, !tbaa !43
  %.sroa.9.0..sroa_idx = getelementptr inbounds nuw i8, ptr %22, i64 40
  store ptr %11, ptr %.sroa.9.0..sroa_idx, align 8, !tbaa !43
  store ptr %22, ptr %13, align 8, !tbaa !45
  store ptr @_ZNSt17_Function_handlerIFvN11OpenImageIO6v3_1_03ROIEEZNS1_L15circular_shift_IttEEbRNS1_8ImageBufERKS5_iiiS2_S2_iEUlS2_E_E9_M_invokeERKSt9_Any_dataOS2_, ptr %20, align 8, !tbaa !46
  store ptr @_ZNSt17_Function_handlerIFvN11OpenImageIO6v3_1_03ROIEEZNS1_L15circular_shift_IttEEbRNS1_8ImageBufERKS5_iiiS2_S2_iEUlS2_E_E10_M_managerERSt9_Any_dataRKSB_St18_Manager_operation, ptr %19, align 8, !tbaa !49
  invoke void @_ZN11OpenImageIO6v3_1_012ImageBufAlgo14parallel_imageENS0_3ROIENS0_6paroptESt8functionIFvS2_EE(ptr noundef nonnull byval(%"struct.OpenImageIO::v3_1_0::ROI") align 8 %6, ptr noundef nonnull byval(%"class.OpenImageIO::v3_1_0::paropt") align 8 %12, ptr noundef nonnull %13)
          to label %23 unwind label %30

23:                                               ; preds = %8
  %24 = load ptr, ptr %19, align 8, !tbaa !49
  %.not.i = icmp eq ptr %24, null
  br i1 %.not.i, label %_ZNSt14_Function_baseD2Ev.exit, label %25

25:                                               ; preds = %23
  %26 = invoke noundef zeroext i1 %24(ptr noundef nonnull align 8 dereferenceable(32) %13, ptr noundef nonnull align 8 dereferenceable(32) %13, i32 noundef 3)
          to label %_ZNSt14_Function_baseD2Ev.exit unwind label %27

27:                                               ; preds = %25
  %28 = landingpad { ptr, i32 }
          catch ptr null
  %29 = extractvalue { ptr, i32 } %28, 0
  call void @__clang_call_terminate(ptr %29) #31
  unreachable

_ZNSt14_Function_baseD2Ev.exit:                   ; preds = %23, %25
  ret void

30:                                               ; preds = %8
  %31 = landingpad { ptr, i32 }
          cleanup
  %32 = load ptr, ptr %19, align 8, !tbaa !49
  %.not.i4 = icmp eq ptr %32, null
  br i1 %.not.i4, label %_ZNSt14_Function_baseD2Ev.exit5, label %33

33:                                               ; preds = %30
  %34 = invoke noundef zeroext i1 %32(ptr noundef nonnull align 8 dereferenceable(32) %13, ptr noundef nonnull align 8 dereferenceable(32) %13, i32 noundef 3)
          to label %_ZNSt14_Function_baseD2Ev.exit5 unwind label %35

35:                                               ; preds = %33
  %36 = landingpad { ptr, i32 }
          catch ptr null
  %37 = extractvalue { ptr, i32 } %36, 0
  call void @__clang_call_terminate(ptr %37) #31
  unreachable

_ZNSt14_Function_baseD2Ev.exit5:                  ; preds = %30, %33
  resume { ptr, i32 } %31
}